target datalayout = "e-m:e-p270:32:32-p271:32:32-p272:64:64-i64:64-i128:128-f80:128-n8:16:32:64-S128"
target triple = "x86_64-pc-linux-gnu"

%"class.std::__shared_count" = type { ptr }
%"class.std::shared_ptr.251" = type { %"class.std::__shared_ptr.252" }
%"class.std::__shared_ptr.252" = type { ptr, %"class.std::__shared_count" }
%"struct.rocksdb::ShardedCacheOptions.base" = type <{ ptr, i64, i32, i8, [3 x i8], %"class.std::shared_ptr.251", i32, [4 x i8], %"class.std::shared_ptr.254", i32 }>
%"class.std::shared_ptr.254" = type { %"class.std::__shared_ptr.255" }
%"class.std::__shared_ptr.255" = type { ptr, %"class.std::__shared_count" }
%struct.rocksdb_hyper_clock_cache_options_t = type { %"struct.rocksdb::HyperClockCacheOptions" }
%"struct.rocksdb::HyperClockCacheOptions" = type <{ %"struct.rocksdb::ShardedCacheOptions.base", [4 x i8], i64, i64, i32, [4 x i8] }>

; Function Attrs: inlinehint mustprogress nounwind uwtable
define linkonce_odr void @_ZN35rocksdb_hyper_clock_cache_options_tD2Ev(ptr noundef nonnull align 8 dereferenceable(96) %0) unnamed_addr #5 comdat align 2 {
  %2 = alloca ptr, align 8
  store ptr %0, ptr %2, align 8, !tbaa !1083
  %3 = load ptr, ptr %2, align 8
  %4 = getelementptr inbounds nuw %struct.rocksdb_hyper_clock_cache_options_t, ptr %3, i32 0, i32 0
  call void @_ZN7rocksdb19ShardedCacheOptionsD2Ev(ptr noundef nonnull align 8 dereferenceable(92) %4) #24
  ret void
}

; Function Attrs: mustprogress nounwind uwtable
define void @rocksdb_hyper_clock_cache_options_destroy(ptr noundef %0) #2 {
  %2 = alloca ptr, align 8
  store ptr %0, ptr %2, align 8, !tbaa !1083
  %3 = load ptr, ptr %2, align 8, !tbaa !1083
  %4 = icmp eq ptr %3, null
  br i1 %4, label %6, label %5

5:                                                ; preds = %1
  call void @_ZN35rocksdb_hyper_clock_cache_options_tD2Ev(ptr noundef nonnull align 8 dereferenceable(96) %3) #24
  call void @_ZdlPvm(ptr noundef %3, i64 noundef 96) #28
  br label %6

6:                                                ; preds = %5, %1
  ret void
}